target datalayout = "e-m:e-p270:32:32-p271:32:32-p272:64:64-i64:64-i128:128-f80:128-n8:16:32:64-S128"
target triple = "x86_64-pc-linux-gnu"

%class.anon.218 = type { ptr, ptr }

; Function Attrs: mustprogress uwtable
define internal noundef zeroext i1 @_ZZZN12_GLOBAL__N_14Impl4sendEPKN3dap8TypeInfoES4_PKvRKSt8functionIFvS6_PKNS1_5ErrorEEEENKUlPNS1_15FieldSerializerEE_clESG_ENKUlPNS1_10SerializerEE_clESJ_(ptr noundef nonnull align 8 dereferenceable(16) %0, ptr noundef %1) #0 align 2 {
  %3 = alloca ptr, align 8
  %4 = alloca ptr, align 8
  store ptr %0, ptr %3, align 8
  store ptr %1, ptr %4, align 8
  %5 = load ptr, ptr %3, align 8
  %6 = getelementptr inbounds %class.anon.218, ptr %5, i32 0, i32 0
  %7 = load ptr, ptr %6, align 8
  %8 = load ptr, ptr %7, align 8
  %9 = load ptr, ptr %4, align 8
  %10 = getelementptr inbounds %class.anon.218, ptr %5, i32 0, i32 1
  %11 = load ptr, ptr %10, align 8
  %12 = load ptr, ptr %11, align 8
  %13 = load ptr, ptr %8, align 8
  %14 = getelementptr inbounds ptr, ptr %13, i64 9
  %15 = load ptr, ptr %14, align 8
  %16 = call noundef zeroext i1 %15(ptr noundef nonnull align 8 dereferenceable(8) %8, ptr noundef %9, ptr noundef %12)
  ret i1 %16
}

; Function Attrs: mustprogress nounwind uwtable
define linkonce_odr dso_local noundef ptr @_ZNKSt9_Any_data9_M_accessEv(ptr noundef nonnull align 8 dereferenceable(16) %0) #4 comdat align 2 {
  %2 = alloca ptr, align 8
  store ptr %0, ptr %2, align 8
  %3 = load ptr, ptr %2, align 8
  %4 = getelementptr inbounds [16 x i8], ptr %3, i64 0, i64 0
  ret ptr %4
}

; Function Attrs: mustprogress uwtable
define internal noundef zeroext i1 @_ZSt13__invoke_implIbRZZN12_GLOBAL__N_14Impl4sendEPKN3dap8TypeInfoES5_PKvRKSt8functionIFvS7_PKNS2_5ErrorEEEENKUlPNS2_15FieldSerializerEE_clESH_EUlPNS2_10SerializerEE_JSK_EET_St14__invoke_otherOT0_DpOT1_(ptr noundef nonnull align 8 dereferenceable(16) %0, ptr noundef nonnull align 8 dereferenceable(8) %1) #0 {
  %3 = alloca ptr, align 8
  %4 = alloca ptr, align 8
  store ptr %0, ptr %3, align 8
  store ptr %1, ptr %4, align 8
  %5 = load ptr, ptr %3, align 8
  %6 = load ptr, ptr %4, align 8
  %7 = load ptr, ptr %6, align 8
  %8 = call noundef zeroext i1 @_ZZZN12_GLOBAL__N_14Impl4sendEPKN3dap8TypeInfoES4_PKvRKSt8functionIFvS6_PKNS1_5ErrorEEEENKUlPNS1_15FieldSerializerEE_clESG_ENKUlPNS1_10SerializerEE_clESJ_(ptr noundef nonnull align 8 dereferenceable(16) %5, ptr noundef %7)
  ret i1 %8
}

; Function Attrs: mustprogress nounwind uwtable
define internal noundef nonnull align 8 dereferenceable(16) ptr @_ZNKSt9_Any_data9_M_accessIZZN12_GLOBAL__N_14Impl4sendEPKN3dap8TypeInfoES6_PKvRKSt8functionIFvS8_PKNS3_5ErrorEEEENKUlPNS3_15FieldSerializerEE_clESI_EUlPNS3_10SerializerEE_EERKT_v(ptr noundef nonnull align 8 dereferenceable(16) %0) #4 align 2 {
  %2 = alloca ptr, align 8
  store ptr %0, ptr %2, align 8
  %3 = load ptr, ptr %2, align 8
  %4 = call noundef ptr @_ZNKSt9_Any_data9_M_accessEv(ptr noundef nonnull align 8 dereferenceable(16) %3) #12
  ret ptr %4
}

; Function Attrs: mustprogress uwtable
define internal noundef zeroext i1 @_ZSt10__invoke_rIbRZZN12_GLOBAL__N_14Impl4sendEPKN3dap8TypeInfoES5_PKvRKSt8functionIFvS7_PKNS2_5ErrorEEEENKUlPNS2_15FieldSerializerEE_clESH_EUlPNS2_10SerializerEE_JSK_EENSt9enable_ifIX16is_invocable_r_vIT_T0_DpT1_EESO_E4typeEOSP_DpOSQ_(ptr noundef nonnull align 8 dereferenceable(16) %0, ptr noundef nonnull align 8 dereferenceable(8) %1) #0 {
  %3 = alloca ptr, align 8
  %4 = alloca ptr, align 8
  store ptr %0, ptr %3, align 8
  store ptr %1, ptr %4, align 8
  %5 = load ptr, ptr %3, align 8
  %6 = load ptr, ptr %4, align 8
  %7 = call noundef zeroext i1 @_ZSt13__invoke_implIbRZZN12_GLOBAL__N_14Impl4sendEPKN3dap8TypeInfoES5_PKvRKSt8functionIFvS7_PKNS2_5ErrorEEEENKUlPNS2_15FieldSerializerEE_clESH_EUlPNS2_10SerializerEE_JSK_EET_St14__invoke_otherOT0_DpOT1_(ptr noundef nonnull align 8 dereferenceable(16) %5, ptr noundef nonnull align 8 dereferenceable(8) %6)
  ret i1 %7
}

; Function Attrs: mustprogress nounwind uwtable
define internal noundef ptr @_ZNSt14_Function_base13_Base_managerIZZN12_GLOBAL__N_14Impl4sendEPKN3dap8TypeInfoES6_PKvRKSt8functionIFvS8_PKNS3_5ErrorEEEENKUlPNS3_15FieldSerializerEE_clESI_EUlPNS3_10SerializerEE_E14_M_get_pointerERKSt9_Any_data(ptr noundef nonnull align 8 dereferenceable(16) %0) #4 align 2 {
  %2 = alloca ptr, align 8
  %3 = alloca ptr, align 8
  store ptr %0, ptr %2, align 8
  %4 = load ptr, ptr %2, align 8
  %5 = call noundef nonnull align 8 dereferenceable(16) ptr @_ZNKSt9_Any_data9_M_accessIZZN12_GLOBAL__N_14Impl4sendEPKN3dap8TypeInfoES6_PKvRKSt8functionIFvS8_PKNS3_5ErrorEEEENKUlPNS3_15FieldSerializerEE_clESI_EUlPNS3_10SerializerEE_EERKT_v(ptr noundef nonnull align 8 dereferenceable(16) %4) #12
  store ptr %5, ptr %3, align 8
  %6 = load ptr, ptr %3, align 8
  ret ptr %6
}

; Function Attrs: mustprogress uwtable
define internal noundef zeroext i1 @_ZNSt17_Function_handlerIFbPN3dap10SerializerEEZZN12_GLOBAL__N_14Impl4sendEPKNS0_8TypeInfoES8_PKvRKSt8functionIFvSA_PKNS0_5ErrorEEEENKUlPNS0_15FieldSerializerEE_clESK_EUlS2_E_E9_M_invokeERKSt9_Any_dataOS2_(ptr noundef nonnull align 8 dereferenceable(16) %0, ptr noundef nonnull align 8 dereferenceable(8) %1) #0 align 2 {
  %3 = alloca ptr, align 8
  %4 = alloca ptr, align 8
  store ptr %0, ptr %3, align 8
  store ptr %1, ptr %4, align 8
  %5 = load ptr, ptr %3, align 8
  %6 = call noundef ptr @_ZNSt14_Function_base13_Base_managerIZZN12_GLOBAL__N_14Impl4sendEPKN3dap8TypeInfoES6_PKvRKSt8functionIFvS8_PKNS3_5ErrorEEEENKUlPNS3_15FieldSerializerEE_clESI_EUlPNS3_10SerializerEE_E14_M_get_pointerERKSt9_Any_data(ptr noundef nonnull align 8 dereferenceable(16) %5) #12
  %7 = load ptr, ptr %4, align 8
  %8 = call noundef zeroext i1 @_ZSt10__invoke_rIbRZZN12_GLOBAL__N_14Impl4sendEPKN3dap8TypeInfoES5_PKvRKSt8functionIFvS7_PKNS2_5ErrorEEEENKUlPNS2_15FieldSerializerEE_clESH_EUlPNS2_10SerializerEE_JSK_EENSt9enable_ifIX16is_invocable_r_vIT_T0_DpT1_EESO_E4typeEOSP_DpOSQ_(ptr noundef nonnull align 8 dereferenceable(16) %6, ptr noundef nonnull align 8 dereferenceable(8) %7)
  ret i1 %8
}